target datalayout = "e-m:e-p270:32:32-p271:32:32-p272:64:64-i64:64-i128:128-f80:128-n8:16:32:64-S128"
target triple = "x86_64-unknown-linux-gnu"

%struct.grpc_transport_stream_op_batch = type { ptr, ptr, i8, %struct.grpc_handler_private_op_data }
%struct.grpc_handler_private_op_data = type { ptr, %struct.grpc_closure }
%struct.grpc_closure = type { %union.anon.138, ptr, ptr, %union.anon.140 }
%union.anon.138 = type { ptr }
%union.anon.140 = type { i64 }
%"class.grpc_core::ArenaPromise" = type { %"struct.grpc_core::arena_promise_detail::VtableAndArg" }
%"struct.grpc_core::arena_promise_detail::VtableAndArg" = type { ptr, [8 x i8], %"struct.grpc_core::arena_promise_detail::ArgType" }
%"struct.grpc_core::arena_promise_detail::ArgType" = type { [8 x i8], [8 x i8] }
%"class.std::function" = type { %"class.std::_Function_base", ptr }
%"class.std::_Function_base" = type { %"union.std::_Any_data", ptr }
%"union.std::_Any_data" = type { %"union.std::_Nocopy_types" }
%"union.std::_Nocopy_types" = type { { i64, i64 } }
%"struct.std::atomic" = type { %"struct.std::__atomic_base" }
%"struct.std::__atomic_base" = type { i64 }
%"class.grpc_core::RefCountedPtr.201" = type { ptr }
%"class.grpc_core::RefCountedPtr.234" = type { ptr }
%"class.grpc_core::promise_detail::PromiseLike.244" = type { %class.anon.245 }
%class.anon.245 = type { %"class.grpc_core::RefCountedPtr.234", %"class.grpc_core::promise_detail::Map.246" }
%"class.grpc_core::promise_detail::Map.246" = type { %"class.grpc_core::promise_detail::PromiseLike.247", %class.anon.249 }
%"class.grpc_core::promise_detail::PromiseLike.247" = type { %class.anon.248 }
%class.anon.248 = type { ptr }
%class.anon.249 = type { ptr }
%"class.grpc_core::Orphanable" = type { ptr }
%"class.grpc_core::Party" = type { %"class.grpc_core::Activity", %"class.grpc_core::Wakeable", %"class.grpc_core::PartySyncUsingAtomics", ptr, i8, [16 x %"struct.std::atomic.193"] }
%"class.grpc_core::Activity" = type { %"class.grpc_core::Orphanable" }
%"class.grpc_core::Wakeable" = type { ptr }
%"class.grpc_core::PartySyncUsingAtomics" = type { %"struct.std::atomic" }
%"struct.std::atomic.193" = type { %"struct.std::__atomic_base.194" }
%"struct.std::__atomic_base.194" = type { ptr }
%"struct.grpc_core::BatchBuilder::Batch" = type <{ %struct.grpc_transport_stream_op_batch, ptr, ptr, ptr, ptr, %"class.grpc_core::RefCountedPtr.400", ptr, i8, [7 x i8] }>
%"class.grpc_core::RefCountedPtr.400" = type { ptr }
%class.anon.480 = type { %"class.grpc_core::RefCountedPtr.201" }
%"class.grpc_core::promise_detail::TrySeq.481" = type { %"struct.grpc_core::promise_detail::SeqState.482" }
%"struct.grpc_core::promise_detail::SeqState.482" = type <{ %union.anon.483, i8, [15 x i8] }>
%union.anon.483 = type { %"struct.grpc_core::promise_detail::SeqState<grpc_core::promise_detail::TrySeqTraits, (lambda at /home/dtcxzyw/WorkSpace/Projects/compilers/llvm-opt-benchmark/bench/grpc/grpc/src/core/lib/transport/batch_builder.h:243:14), (lambda at /home/dtcxzyw/WorkSpace/Projects/compilers/llvm-opt-benchmark/bench/grpc/grpc/src/core/lib/channel/connected_channel.cc:617:14)>::Running0", [8 x i8] }
%"struct.grpc_core::promise_detail::SeqState<grpc_core::promise_detail::TrySeqTraits, (lambda at /home/dtcxzyw/WorkSpace/Projects/compilers/llvm-opt-benchmark/bench/grpc/grpc/src/core/lib/transport/batch_builder.h:243:14), (lambda at /home/dtcxzyw/WorkSpace/Projects/compilers/llvm-opt-benchmark/bench/grpc/grpc/src/core/lib/channel/connected_channel.cc:617:14)>::Running0" = type { %"class.grpc_core::promise_detail::PromiseLike.244", %"class.grpc_core::promise_detail::OncePromiseFactory.484" }
%"class.grpc_core::promise_detail::OncePromiseFactory.484" = type { %class.anon.485 }
%class.anon.485 = type { %"class.std::function", %class.anon.480, ptr }
%"class.grpc_core::promise_detail::PromiseLike.486" = type { %"class.grpc_core::promise_detail::Race" }
%"class.grpc_core::promise_detail::Race" = type { %class.anon.487, [8 x i8], %"class.grpc_core::promise_detail::Race.488" }
%class.anon.487 = type { ptr }
%"class.grpc_core::promise_detail::Race.488" = type { %class.anon.489 }
%class.anon.489 = type { %"class.grpc_core::ArenaPromise", %class.anon.480, [8 x i8] }

; Function Attrs: mustprogress nounwind uwtable
define linkonce_odr void @_ZN9grpc_core5Arena12DeletePooledINS_12BatchBuilder5BatchEEEvPT_(ptr noundef nonnull align 8 dereferenceable(48) %this, ptr noundef %p) #4 comdat align 2 {
entry:
  %this.addr = alloca ptr, align 8
  %p.addr = alloca ptr, align 8
  store ptr %this, ptr %this.addr, align 8
  store ptr %p, ptr %p.addr, align 8
  %0 = load ptr, ptr %p.addr, align 8
  %isnull = icmp eq ptr %0, null
  br i1 %isnull, label %delete.end, label %delete.notnull

delete.notnull:                                   ; preds = %entry
  call void @_ZN9grpc_core12BatchBuilder5BatchD1Ev(ptr noundef nonnull align 8 dereferenceable(120) %0) #3
  call void @_ZdlPv(ptr noundef %0) #18
  br label %delete.end

delete.end:                                       ; preds = %delete.notnull, %entry
  ret void
}

; Function Attrs: mustprogress nounwind uwtable
define linkonce_odr noundef ptr @_ZNK9grpc_core5Party5arenaEv(ptr noundef nonnull align 8 dereferenceable(168) %this) #4 comdat align 2 {
entry:
  %this.addr = alloca ptr, align 8
  store ptr %this, ptr %this.addr, align 8
  %this1 = load ptr, ptr %this.addr, align 8
  %arena_ = getelementptr inbounds %"class.grpc_core::Party", ptr %this1, i32 0, i32 3
  %0 = load ptr, ptr %arena_, align 8
  ret ptr %0
}

; Function Attrs: mustprogress nounwind uwtable
define linkonce_odr noundef ptr @_ZNK9grpc_core13RefCountedPtrINS_5PartyEEptEv(ptr noundef nonnull align 8 dereferenceable(8) %this) #4 comdat align 2 {
entry:
  %this.addr = alloca ptr, align 8
  store ptr %this, ptr %this.addr, align 8
  %this1 = load ptr, ptr %this.addr, align 8
  %value_ = getelementptr inbounds %"class.grpc_core::RefCountedPtr.400", ptr %this1, i32 0, i32 0
  %0 = load ptr, ptr %value_, align 8
  ret ptr %0
}

; Function Attrs: mustprogress uwtable
define linkonce_odr void @_ZN9grpc_core12BatchBuilder5Batch5UnrefEv(ptr noundef nonnull align 8 dereferenceable(120) %this) #5 comdat align 2 {
entry:
  %this.addr = alloca ptr, align 8
  store ptr %this, ptr %this.addr, align 8
  %this1 = load ptr, ptr %this.addr, align 8
  %refs = getelementptr inbounds %"struct.grpc_core::BatchBuilder::Batch", ptr %this1, i32 0, i32 7
  %0 = load i8, ptr %refs, align 8
  %dec = add i8 %0, -1
  store i8 %dec, ptr %refs, align 8
  %conv = zext i8 %dec to i32
  %cmp = icmp eq i32 %conv, 0
  br i1 %cmp, label %if.then, label %if.end

if.then:                                          ; preds = %entry
  %party = getelementptr inbounds %"struct.grpc_core::BatchBuilder::Batch", ptr %this1, i32 0, i32 5
  %call = call noundef ptr @_ZNK9grpc_core13RefCountedPtrINS_5PartyEEptEv(ptr noundef nonnull align 8 dereferenceable(8) %party)
  %call2 = call noundef ptr @_ZNK9grpc_core5Party5arenaEv(ptr noundef nonnull align 8 dereferenceable(168) %call)
  call void @_ZN9grpc_core5Arena12DeletePooledINS_12BatchBuilder5BatchEEEvPT_(ptr noundef nonnull align 8 dereferenceable(48) %call2, ptr noundef %this1)
  br label %if.end

if.end:                                           ; preds = %if.then, %entry
  ret void
}

; Function Attrs: mustprogress nounwind uwtable
define internal void @"_ZN9grpc_core14promise_detail4RaceIJZZNS_12_GLOBAL__N_121MakeServerCallPromiseEPNS_9TransportENS_8CallArgsESt8functionIFNS_12ArenaPromiseISt10unique_ptrI19grpc_metadata_batchNS_5Arena13PooledDeleterEEEES5_EEENK3$_0clESC_EUlvE_EED2Ev"(ptr noundef nonnull align 16 dereferenceable(48) %this) unnamed_addr #4 align 2 {
entry:
  %this.addr = alloca ptr, align 8
  store ptr %this, ptr %this.addr, align 8
  %this1 = load ptr, ptr %this.addr, align 8
  %promise_ = getelementptr inbounds %"class.grpc_core::promise_detail::Race.488", ptr %this1, i32 0, i32 0
  call void @"_ZZZN9grpc_core12_GLOBAL__N_121MakeServerCallPromiseEPNS_9TransportENS_8CallArgsESt8functionIFNS_12ArenaPromiseISt10unique_ptrI19grpc_metadata_batchNS_5Arena13PooledDeleterEEEES3_EEENK3$_0clESA_ENUlvE_D2Ev"(ptr noundef nonnull align 16 dereferenceable(40) %promise_) #3
  ret void
}

; Function Attrs: mustprogress nounwind uwtable
define linkonce_odr void @_ZN9grpc_core13RefCountedPtrINS_12BatchBuilder5BatchEED2Ev(ptr noundef nonnull align 8 dereferenceable(8) %this) unnamed_addr #4 comdat align 2 personality ptr @__gxx_personality_v0 {
entry:
  %this.addr = alloca ptr, align 8
  store ptr %this, ptr %this.addr, align 8
  %this1 = load ptr, ptr %this.addr, align 8
  %value_ = getelementptr inbounds %"class.grpc_core::RefCountedPtr.234", ptr %this1, i32 0, i32 0
  %0 = load ptr, ptr %value_, align 8
  %cmp = icmp ne ptr %0, null
  br i1 %cmp, label %if.then, label %if.end

if.then:                                          ; preds = %entry
  %value_2 = getelementptr inbounds %"class.grpc_core::RefCountedPtr.234", ptr %this1, i32 0, i32 0
  %1 = load ptr, ptr %value_2, align 8
  invoke void @_ZN9grpc_core12BatchBuilder5Batch5UnrefEv(ptr noundef nonnull align 8 dereferenceable(120) %1)
          to label %invoke.cont unwind label %terminate.lpad

invoke.cont:                                      ; preds = %if.then
  br label %if.end

if.end:                                           ; preds = %invoke.cont, %entry
  ret void

terminate.lpad:                                   ; preds = %if.then
  %2 = landingpad { ptr, i32 }
          catch ptr null
  %3 = extractvalue { ptr, i32 } %2, 0
  call void @__clang_call_terminate(ptr %3) #16
  unreachable
}

; Function Attrs: mustprogress nounwind uwtable
define internal void @"_ZN9grpc_core14promise_detail4RaceIJZNS_5LatchISt10unique_ptrI19grpc_metadata_batchNS_5Arena13PooledDeleterEEE4WaitEvEUlvE_ZZNS_12_GLOBAL__N_121MakeServerCallPromiseEPNS_9TransportENS_8CallArgsESt8functionIFNS_12ArenaPromiseIS7_EESD_EEENK3$_0clES7_EUlvE_EED2Ev"(ptr noundef nonnull align 16 dereferenceable(64) %this) unnamed_addr #4 align 2 {
entry:
  %this.addr = alloca ptr, align 8
  store ptr %this, ptr %this.addr, align 8
  %this1 = load ptr, ptr %this.addr, align 8
  %next_ = getelementptr inbounds %"class.grpc_core::promise_detail::Race", ptr %this1, i32 0, i32 2
  call void @"_ZN9grpc_core14promise_detail4RaceIJZZNS_12_GLOBAL__N_121MakeServerCallPromiseEPNS_9TransportENS_8CallArgsESt8functionIFNS_12ArenaPromiseISt10unique_ptrI19grpc_metadata_batchNS_5Arena13PooledDeleterEEEES5_EEENK3$_0clESC_EUlvE_EED2Ev"(ptr noundef nonnull align 16 dereferenceable(48) %next_) #3
  ret void
}

; Function Attrs: mustprogress nounwind uwtable
define linkonce_odr void @_ZZN9grpc_core12BatchBuilder5Batch8RefUntilINS_14promise_detail3MapIZNS_5LatchIN4absl12lts_202308026StatusEE4WaitEvEUlvE_ZNS0_22ReceiveInitialMetadataENS0_6TargetEEUlS8_E_EEEEDaT_ENUlvE_D2Ev(ptr noundef nonnull align 8 dereferenceable(24) %this) unnamed_addr #4 comdat align 2 {
entry:
  %this.addr = alloca ptr, align 8
  store ptr %this, ptr %this.addr, align 8
  %this1 = load ptr, ptr %this.addr, align 8
  %0 = getelementptr inbounds %class.anon.245, ptr %this1, i32 0, i32 0
  call void @_ZN9grpc_core13RefCountedPtrINS_12BatchBuilder5BatchEED2Ev(ptr noundef nonnull align 8 dereferenceable(8) %0) #3
  ret void
}

; Function Attrs: mustprogress nounwind uwtable
define internal void @"_ZN9grpc_core14promise_detail18OncePromiseFactoryISt10unique_ptrI19grpc_metadata_batchNS_5Arena13PooledDeleterEEZNS_12_GLOBAL__N_121MakeServerCallPromiseEPNS_9TransportENS_8CallArgsESt8functionIFNS_12ArenaPromiseIS6_EESA_EEE3$_0ED2Ev"(ptr noundef nonnull align 8 dereferenceable(48) %this) unnamed_addr #4 align 2 {
entry:
  %this.addr = alloca ptr, align 8
  store ptr %this, ptr %this.addr, align 8
  %this1 = load ptr, ptr %this.addr, align 8
  %f_ = getelementptr inbounds %"class.grpc_core::promise_detail::OncePromiseFactory.484", ptr %this1, i32 0, i32 0
  call void @"_ZZN9grpc_core12_GLOBAL__N_121MakeServerCallPromiseEPNS_9TransportENS_8CallArgsESt8functionIFNS_12ArenaPromiseISt10unique_ptrI19grpc_metadata_batchNS_5Arena13PooledDeleterEEEES3_EEEN3$_0D2Ev"(ptr noundef nonnull align 8 dereferenceable(48) %f_) #3
  ret void
}

; Function Attrs: mustprogress nounwind uwtable
define internal void @"_ZN9grpc_core14promise_detail11PromiseLikeINS0_4RaceIJZNS_5LatchISt10unique_ptrI19grpc_metadata_batchNS_5Arena13PooledDeleterEEE4WaitEvEUlvE_ZZNS_12_GLOBAL__N_121MakeServerCallPromiseEPNS_9TransportENS_8CallArgsESt8functionIFNS_12ArenaPromiseIS8_EESE_EEENK3$_0clES8_EUlvE_EEEvED2Ev"(ptr noundef nonnull align 16 dereferenceable(64) %this) unnamed_addr #4 align 2 {
entry:
  %this.addr = alloca ptr, align 8
  store ptr %this, ptr %this.addr, align 8
  %this1 = load ptr, ptr %this.addr, align 8
  %f_ = getelementptr inbounds %"class.grpc_core::promise_detail::PromiseLike.486", ptr %this1, i32 0, i32 0
  call void @"_ZN9grpc_core14promise_detail4RaceIJZNS_5LatchISt10unique_ptrI19grpc_metadata_batchNS_5Arena13PooledDeleterEEE4WaitEvEUlvE_ZZNS_12_GLOBAL__N_121MakeServerCallPromiseEPNS_9TransportENS_8CallArgsESt8functionIFNS_12ArenaPromiseIS7_EESD_EEENK3$_0clES7_EUlvE_EED2Ev"(ptr noundef nonnull align 16 dereferenceable(64) %f_) #3
  ret void
}

; Function Attrs: mustprogress nounwind uwtable
define linkonce_odr void @_ZN9grpc_core14promise_detail11PromiseLikeIZNS_12BatchBuilder5Batch8RefUntilINS0_3MapIZNS_5LatchIN4absl12lts_202308026StatusEE4WaitEvEUlvE_ZNS2_22ReceiveInitialMetadataENS2_6TargetEEUlS9_E_EEEEDaT_EUlvE_vED2Ev(ptr noundef nonnull align 8 dereferenceable(24) %this) unnamed_addr #4 comdat align 2 {
entry:
  %this.addr = alloca ptr, align 8
  store ptr %this, ptr %this.addr, align 8
  %this1 = load ptr, ptr %this.addr, align 8
  %f_ = getelementptr inbounds %"class.grpc_core::promise_detail::PromiseLike.244", ptr %this1, i32 0, i32 0
  call void @_ZZN9grpc_core12BatchBuilder5Batch8RefUntilINS_14promise_detail3MapIZNS_5LatchIN4absl12lts_202308026StatusEE4WaitEvEUlvE_ZNS0_22ReceiveInitialMetadataENS0_6TargetEEUlS8_E_EEEEDaT_ENUlvE_D2Ev(ptr noundef nonnull align 8 dereferenceable(24) %f_) #3
  ret void
}

; Function Attrs: noreturn nounwind uwtable
define linkonce_odr hidden void @__clang_call_terminate(ptr noundef %0) #7 comdat {
  %2 = call ptr @__cxa_begin_catch(ptr %0) #3
  call void @_ZSt9terminatev() #16
  unreachable
}

; Function Attrs: mustprogress nounwind uwtable
define internal void @"_ZN9grpc_core8DestructINS_14promise_detail18OncePromiseFactoryISt10unique_ptrI19grpc_metadata_batchNS_5Arena13PooledDeleterEEZNS_12_GLOBAL__N_121MakeServerCallPromiseEPNS_9TransportENS_8CallArgsESt8functionIFNS_12ArenaPromiseIS7_EESB_EEE3$_0EEEEvPT_"(ptr noundef %p) #4 {
entry:
  %p.addr = alloca ptr, align 8
  store ptr %p, ptr %p.addr, align 8
  %0 = load ptr, ptr %p.addr, align 8
  call void @"_ZN9grpc_core14promise_detail18OncePromiseFactoryISt10unique_ptrI19grpc_metadata_batchNS_5Arena13PooledDeleterEEZNS_12_GLOBAL__N_121MakeServerCallPromiseEPNS_9TransportENS_8CallArgsESt8functionIFNS_12ArenaPromiseIS6_EESA_EEE3$_0ED2Ev"(ptr noundef nonnull align 8 dereferenceable(48) %0) #3
  ret void
}

; Function Attrs: mustprogress nounwind uwtable
define internal void @"_ZN9grpc_core8DestructINS_14promise_detail11PromiseLikeINS1_4RaceIJZNS_5LatchISt10unique_ptrI19grpc_metadata_batchNS_5Arena13PooledDeleterEEE4WaitEvEUlvE_ZZNS_12_GLOBAL__N_121MakeServerCallPromiseEPNS_9TransportENS_8CallArgsESt8functionIFNS_12ArenaPromiseIS9_EESF_EEENK3$_0clES9_EUlvE_EEEvEEEEvPT_"(ptr noundef %p) #4 {
entry:
  %p.addr = alloca ptr, align 8
  store ptr %p, ptr %p.addr, align 8
  %0 = load ptr, ptr %p.addr, align 8
  call void @"_ZN9grpc_core14promise_detail11PromiseLikeINS0_4RaceIJZNS_5LatchISt10unique_ptrI19grpc_metadata_batchNS_5Arena13PooledDeleterEEE4WaitEvEUlvE_ZZNS_12_GLOBAL__N_121MakeServerCallPromiseEPNS_9TransportENS_8CallArgsESt8functionIFNS_12ArenaPromiseIS8_EESE_EEENK3$_0clES8_EUlvE_EEEvED2Ev"(ptr noundef nonnull align 16 dereferenceable(64) %0) #3
  ret void
}

; Function Attrs: mustprogress nounwind uwtable
define linkonce_odr void @_ZN9grpc_core8DestructINS_14promise_detail11PromiseLikeIZNS_12BatchBuilder5Batch8RefUntilINS1_3MapIZNS_5LatchIN4absl12lts_202308026StatusEE4WaitEvEUlvE_ZNS3_22ReceiveInitialMetadataENS3_6TargetEEUlSA_E_EEEEDaT_EUlvE_vEEEEvPSG_(ptr noundef %p) #4 comdat {
entry:
  %p.addr = alloca ptr, align 8
  store ptr %p, ptr %p.addr, align 8
  %0 = load ptr, ptr %p.addr, align 8
  call void @_ZN9grpc_core14promise_detail11PromiseLikeIZNS_12BatchBuilder5Batch8RefUntilINS0_3MapIZNS_5LatchIN4absl12lts_202308026StatusEE4WaitEvEUlvE_ZNS2_22ReceiveInitialMetadataENS2_6TargetEEUlS9_E_EEEEDaT_EUlvE_vED2Ev(ptr noundef nonnull align 8 dereferenceable(24) %0) #3
  ret void
}

; Function Attrs: mustprogress nounwind uwtable
define internal void @"_ZN9grpc_core14promise_detail8SeqStateINS0_12TrySeqTraitsEZNS_12BatchBuilder5Batch8RefUntilINS0_3MapIZNS_5LatchIN4absl12lts_202308026StatusEE4WaitEvEUlvE_ZNS3_22ReceiveInitialMetadataENS3_6TargetEEUlSA_E_EEEEDaT_EUlvE_JZNS_12_GLOBAL__N_121MakeServerCallPromiseEPNS_9TransportENS_8CallArgsESt8functionIFNS_12ArenaPromiseISt10unique_ptrI19grpc_metadata_batchNS_5Arena13PooledDeleterEEEESL_EEE3$_0EED2Ev"(ptr noundef nonnull align 16 dereferenceable(81) %this) unnamed_addr #4 align 2 personality ptr @__gxx_personality_v0 {
entry:
  %this.addr = alloca ptr, align 8
  store ptr %this, ptr %this.addr, align 8
  %this1 = load ptr, ptr %this.addr, align 8
  %state = getelementptr inbounds %"struct.grpc_core::promise_detail::SeqState.482", ptr %this1, i32 0, i32 1
  %0 = load i8, ptr %state, align 16
  switch i8 %0, label %sw.epilog [
    i8 0, label %sw.bb
    i8 1, label %sw.bb2
  ]

sw.bb:                                            ; preds = %entry
  %1 = getelementptr inbounds %"struct.grpc_core::promise_detail::SeqState.482", ptr %this1, i32 0, i32 0
  %current_promise = getelementptr inbounds %"struct.grpc_core::promise_detail::SeqState<grpc_core::promise_detail::TrySeqTraits, (lambda at /home/dtcxzyw/WorkSpace/Projects/compilers/llvm-opt-benchmark/bench/grpc/grpc/src/core/lib/transport/batch_builder.h:243:14), (lambda at /home/dtcxzyw/WorkSpace/Projects/compilers/llvm-opt-benchmark/bench/grpc/grpc/src/core/lib/channel/connected_channel.cc:617:14)>::Running0", ptr %1, i32 0, i32 0
  call void @_ZN9grpc_core8DestructINS_14promise_detail11PromiseLikeIZNS_12BatchBuilder5Batch8RefUntilINS1_3MapIZNS_5LatchIN4absl12lts_202308026StatusEE4WaitEvEUlvE_ZNS3_22ReceiveInitialMetadataENS3_6TargetEEUlSA_E_EEEEDaT_EUlvE_vEEEEvPSG_(ptr noundef %current_promise)
  br label %tail0

sw.bb2:                                           ; preds = %entry
  %2 = getelementptr inbounds %"struct.grpc_core::promise_detail::SeqState.482", ptr %this1, i32 0, i32 0
  invoke void @"_ZN9grpc_core8DestructINS_14promise_detail11PromiseLikeINS1_4RaceIJZNS_5LatchISt10unique_ptrI19grpc_metadata_batchNS_5Arena13PooledDeleterEEE4WaitEvEUlvE_ZZNS_12_GLOBAL__N_121MakeServerCallPromiseEPNS_9TransportENS_8CallArgsESt8functionIFNS_12ArenaPromiseIS9_EESF_EEENK3$_0clES9_EUlvE_EEEvEEEEvPT_"(ptr noundef %2)
          to label %invoke.cont unwind label %terminate.lpad

invoke.cont:                                      ; preds = %sw.bb2
  br label %return

sw.epilog:                                        ; preds = %entry
  br label %tail0

tail0:                                            ; preds = %sw.epilog, %sw.bb
  %3 = getelementptr inbounds %"struct.grpc_core::promise_detail::SeqState.482", ptr %this1, i32 0, i32 0
  %next_factory = getelementptr inbounds %"struct.grpc_core::promise_detail::SeqState<grpc_core::promise_detail::TrySeqTraits, (lambda at /home/dtcxzyw/WorkSpace/Projects/compilers/llvm-opt-benchmark/bench/grpc/grpc/src/core/lib/transport/batch_builder.h:243:14), (lambda at /home/dtcxzyw/WorkSpace/Projects/compilers/llvm-opt-benchmark/bench/grpc/grpc/src/core/lib/channel/connected_channel.cc:617:14)>::Running0", ptr %3, i32 0, i32 1
  call void @"_ZN9grpc_core8DestructINS_14promise_detail18OncePromiseFactoryISt10unique_ptrI19grpc_metadata_batchNS_5Arena13PooledDeleterEEZNS_12_GLOBAL__N_121MakeServerCallPromiseEPNS_9TransportENS_8CallArgsESt8functionIFNS_12ArenaPromiseIS7_EESB_EEE3$_0EEEEvPT_"(ptr noundef %next_factory)
  br label %return

return:                                           ; preds = %tail0, %invoke.cont
  ret void

terminate.lpad:                                   ; preds = %sw.bb2
  %4 = landingpad { ptr, i32 }
          catch ptr null
  %5 = extractvalue { ptr, i32 } %4, 0
  call void @__clang_call_terminate(ptr %5) #16
  unreachable
}

; Function Attrs: mustprogress nounwind uwtable
define internal void @"_ZN9grpc_core14promise_detail6TrySeqIZNS_12BatchBuilder5Batch8RefUntilINS0_3MapIZNS_5LatchIN4absl12lts_202308026StatusEE4WaitEvEUlvE_ZNS2_22ReceiveInitialMetadataENS2_6TargetEEUlS9_E_EEEEDaT_EUlvE_JZNS_12_GLOBAL__N_121MakeServerCallPromiseEPNS_9TransportENS_8CallArgsESt8functionIFNS_12ArenaPromiseISt10unique_ptrI19grpc_metadata_batchNS_5Arena13PooledDeleterEEEESK_EEE3$_0EED2Ev"(ptr noundef nonnull align 16 dereferenceable(96) %this) unnamed_addr #4 align 2 {
entry:
  %this.addr = alloca ptr, align 8
  store ptr %this, ptr %this.addr, align 8
  %this1 = load ptr, ptr %this.addr, align 8
  %state_ = getelementptr inbounds %"class.grpc_core::promise_detail::TrySeq.481", ptr %this1, i32 0, i32 0
  call void @"_ZN9grpc_core14promise_detail8SeqStateINS0_12TrySeqTraitsEZNS_12BatchBuilder5Batch8RefUntilINS0_3MapIZNS_5LatchIN4absl12lts_202308026StatusEE4WaitEvEUlvE_ZNS3_22ReceiveInitialMetadataENS3_6TargetEEUlSA_E_EEEEDaT_EUlvE_JZNS_12_GLOBAL__N_121MakeServerCallPromiseEPNS_9TransportENS_8CallArgsESt8functionIFNS_12ArenaPromiseISt10unique_ptrI19grpc_metadata_batchNS_5Arena13PooledDeleterEEEESL_EEE3$_0EED2Ev"(ptr noundef nonnull align 16 dereferenceable(81) %state_) #3
  ret void
}