; Function Attrs: mustprogress nounwind uwtable
define internal fastcc void @"_ZN9grpc_core14promise_detail6TrySeqIZNS_12BatchBuilder5Batch8RefUntilINS0_3MapIZNS_5LatchIN4absl12lts_202308026StatusEE4WaitEvEUlvE_ZNS2_22ReceiveInitialMetadataENS2_6TargetEEUlS9_E_EEEEDaT_EUlvE_JZNS_12_GLOBAL__N_121MakeServerCallPromiseEPNS_9TransportENS_8CallArgsESt8functionIFNS_12ArenaPromiseISt10unique_ptrI19grpc_metadata_batchNS_5Arena13PooledDeleterEEEESK_EEE3$_0EED2Ev"(ptr noundef nonnull align 16 dereferenceable(96) %this) unnamed_addr #13 align 2 personality ptr @__gxx_personality_v0 {
entry:
  %state.i = getelementptr inbounds i8, ptr %this, i64 80
  %0 = load i8, ptr %state.i, align 16
  switch i8 %0, label %tail0.i [
    i8 0, label %sw.bb.i
    i8 1, label %sw.bb2.i
  ]

sw.bb.i:                                          ; preds = %entry
  %1 = load ptr, ptr %this, align 16
  %cmp.not.i.i.i.i.i = icmp eq ptr %1, null
  br i1 %cmp.not.i.i.i.i.i, label %tail0.i, label %if.then.i.i.i.i.i

if.then.i.i.i.i.i:                                ; preds = %sw.bb.i
  %refs.i.i.i.i.i.i = getelementptr inbounds i8, ptr %1, i64 112
  %2 = load i8, ptr %refs.i.i.i.i.i.i, align 8
  %dec.i.i.i.i.i.i = add i8 %2, -1
  store i8 %dec.i.i.i.i.i.i, ptr %refs.i.i.i.i.i.i, align 8
  %cmp.i.i.i.i.i.i = icmp eq i8 %dec.i.i.i.i.i.i, 0
  br i1 %cmp.i.i.i.i.i.i, label %if.then.i.i.i.i.i.i, label %tail0.i

if.then.i.i.i.i.i.i:                              ; preds = %if.then.i.i.i.i.i
  tail call void @_ZN9grpc_core12BatchBuilder5BatchD1Ev(ptr noundef nonnull align 8 dereferenceable(120) %1) #23
  tail call void @_ZdlPv(ptr noundef nonnull %1) #26
  br label %tail0.i

sw.bb2.i:                                         ; preds = %entry
  %next_.i.i.i.i = getelementptr inbounds i8, ptr %this, i64 16
  tail call fastcc void @"_ZZZN9grpc_core12_GLOBAL__N_121MakeServerCallPromiseEPNS_9TransportENS_8CallArgsESt8functionIFNS_12ArenaPromiseISt10unique_ptrI19grpc_metadata_batchNS_5Arena13PooledDeleterEEEES3_EEENK3$_0clESA_ENUlvE_D2Ev"(ptr noundef nonnull align 16 dereferenceable(40) %next_.i.i.i.i) #23
  br label %"_ZN9grpc_core14promise_detail8SeqStateINS0_12TrySeqTraitsEZNS_12BatchBuilder5Batch8RefUntilINS0_3MapIZNS_5LatchIN4absl12lts_202308026StatusEE4WaitEvEUlvE_ZNS3_22ReceiveInitialMetadataENS3_6TargetEEUlSA_E_EEEEDaT_EUlvE_JZNS_12_GLOBAL__N_121MakeServerCallPromiseEPNS_9TransportENS_8CallArgsESt8functionIFNS_12ArenaPromiseISt10unique_ptrI19grpc_metadata_batchNS_5Arena13PooledDeleterEEEESL_EEE3$_0EED2Ev.exit"

tail0.i:                                          ; preds = %if.then.i.i.i.i.i.i, %if.then.i.i.i.i.i, %sw.bb.i, %entry
  %next_factory.i = getelementptr inbounds i8, ptr %this, i64 24
  tail call fastcc void @"_ZZN9grpc_core12_GLOBAL__N_121MakeServerCallPromiseEPNS_9TransportENS_8CallArgsESt8functionIFNS_12ArenaPromiseISt10unique_ptrI19grpc_metadata_batchNS_5Arena13PooledDeleterEEEES3_EEEN3$_0D2Ev"(ptr noundef nonnull align 8 dereferenceable(48) %next_factory.i) #23
  br label %"_ZN9grpc_core14promise_detail8SeqStateINS0_12TrySeqTraitsEZNS_12BatchBuilder5Batch8RefUntilINS0_3MapIZNS_5LatchIN4absl12lts_202308026StatusEE4WaitEvEUlvE_ZNS3_22ReceiveInitialMetadataENS3_6TargetEEUlSA_E_EEEEDaT_EUlvE_JZNS_12_GLOBAL__N_121MakeServerCallPromiseEPNS_9TransportENS_8CallArgsESt8functionIFNS_12ArenaPromiseISt10unique_ptrI19grpc_metadata_batchNS_5Arena13PooledDeleterEEEESL_EEE3$_0EED2Ev.exit"

"_ZN9grpc_core14promise_detail8SeqStateINS0_12TrySeqTraitsEZNS_12BatchBuilder5Batch8RefUntilINS0_3MapIZNS_5LatchIN4absl12lts_202308026StatusEE4WaitEvEUlvE_ZNS3_22ReceiveInitialMetadataENS3_6TargetEEUlSA_E_EEEEDaT_EUlvE_JZNS_12_GLOBAL__N_121MakeServerCallPromiseEPNS_9TransportENS_8CallArgsESt8functionIFNS_12ArenaPromiseISt10unique_ptrI19grpc_metadata_batchNS_5Arena13PooledDeleterEEEESL_EEE3$_0EED2Ev.exit": ; preds = %sw.bb2.i, %tail0.i
  ret void
}